target datalayout = "e-m:e-p270:32:32-p271:32:32-p272:64:64-i64:64-i128:128-f80:128-n8:16:32:64-S128"
target triple = "x86_64-pc-linux-gnu"

; Function Attrs: cold nounwind optsize uwtable
define internal i32 @init_ralf_vlc(ptr noundef %0, ptr noundef %1, i32 noundef %2) #0 {
  %4 = alloca ptr, align 8
  %5 = alloca ptr, align 8
  %6 = alloca i32, align 4
  %7 = alloca [644 x i8], align 16
  %8 = alloca [644 x i16], align 16
  %9 = alloca [17 x i32], align 16
  %10 = alloca [18 x i32], align 16
  %11 = alloca i32, align 4
  %12 = alloca i32, align 4
  %13 = alloca i32, align 4
  %14 = alloca i32, align 4
  store ptr %0, ptr %4, align 8, !tbaa !73
  store ptr %1, ptr %5, align 8, !tbaa !55
  store i32 %2, ptr %6, align 4, !tbaa !36
  call void @llvm.lifetime.start.p0(i64 644, ptr %7) #10
  call void @llvm.lifetime.start.p0(i64 1288, ptr %8) #10
  call void @llvm.lifetime.start.p0(i64 68, ptr %9) #10
  call void @llvm.lifetime.start.p0(i64 72, ptr %10) #10
  call void @llvm.lifetime.start.p0(i64 4, ptr %11) #10
  call void @llvm.lifetime.start.p0(i64 4, ptr %12) #10
  call void @llvm.lifetime.start.p0(i64 4, ptr %13) #10
  store i32 0, ptr %13, align 4, !tbaa !36
  call void @llvm.lifetime.start.p0(i64 4, ptr %14) #10
  store i32 0, ptr %14, align 4, !tbaa !36
  store i32 0, ptr %11, align 4, !tbaa !36
  br label %15

15:                                               ; preds = %22, %3
  %16 = load i32, ptr %11, align 4, !tbaa !36
  %17 = icmp sle i32 %16, 16
  br i1 %17, label %18, label %25

18:                                               ; preds = %15
  %19 = load i32, ptr %11, align 4, !tbaa !36
  %20 = sext i32 %19 to i64
  %21 = getelementptr inbounds [17 x i32], ptr %9, i64 0, i64 %20
  store i32 0, ptr %21, align 4, !tbaa !36
  br label %22

22:                                               ; preds = %18
  %23 = load i32, ptr %11, align 4, !tbaa !36
  %24 = add nsw i32 %23, 1
  store i32 %24, ptr %11, align 4, !tbaa !36
  br label %15, !llvm.loop !75

25:                                               ; preds = %15
  store i32 0, ptr %11, align 4, !tbaa !36
  br label %26

26:                                               ; preds = %71, %25
  %27 = load i32, ptr %11, align 4, !tbaa !36
  %28 = load i32, ptr %6, align 4, !tbaa !36
  %29 = icmp slt i32 %27, %28
  br i1 %29, label %30, label %74

30:                                               ; preds = %26
  %31 = load i32, ptr %14, align 4, !tbaa !36
  %32 = icmp ne i32 %31, 0
  br i1 %32, label %33, label %38

33:                                               ; preds = %30
  %34 = load ptr, ptr %5, align 8, !tbaa !55
  %35 = load i8, ptr %34, align 1, !tbaa !33
  %36 = zext i8 %35 to i32
  %37 = and i32 %36, 15
  br label %43

38:                                               ; preds = %30
  %39 = load ptr, ptr %5, align 8, !tbaa !55
  %40 = load i8, ptr %39, align 1, !tbaa !33
  %41 = zext i8 %40 to i32
  %42 = ashr i32 %41, 4
  br label %43

43:                                               ; preds = %38, %33
  %44 = phi i32 [ %37, %33 ], [ %42, %38 ]
  %45 = add nsw i32 %44, 1
  store i32 %45, ptr %12, align 4, !tbaa !36
  %46 = load i32, ptr %12, align 4, !tbaa !36
  %47 = sext i32 %46 to i64
  %48 = getelementptr inbounds [17 x i32], ptr %9, i64 0, i64 %47
  %49 = load i32, ptr %48, align 4, !tbaa !36
  %50 = add nsw i32 %49, 1
  store i32 %50, ptr %48, align 4, !tbaa !36
  %51 = load i32, ptr %13, align 4, !tbaa !36
  %52 = load i32, ptr %12, align 4, !tbaa !36
  %53 = icmp sgt i32 %51, %52
  br i1 %53, label %54, label %56

54:                                               ; preds = %43
  %55 = load i32, ptr %13, align 4, !tbaa !36
  br label %58

56:                                               ; preds = %43
  %57 = load i32, ptr %12, align 4, !tbaa !36
  br label %58

58:                                               ; preds = %56, %54
  %59 = phi i32 [ %55, %54 ], [ %57, %56 ]
  store i32 %59, ptr %13, align 4, !tbaa !36
  %60 = load i32, ptr %12, align 4, !tbaa !36
  %61 = trunc i32 %60 to i8
  %62 = load i32, ptr %11, align 4, !tbaa !36
  %63 = sext i32 %62 to i64
  %64 = getelementptr inbounds [644 x i8], ptr %7, i64 0, i64 %63
  store i8 %61, ptr %64, align 1, !tbaa !33
  %65 = load i32, ptr %14, align 4, !tbaa !36
  %66 = load ptr, ptr %5, align 8, !tbaa !55
  %67 = sext i32 %65 to i64
  %68 = getelementptr inbounds i8, ptr %66, i64 %67
  store ptr %68, ptr %5, align 8, !tbaa !55
  %69 = load i32, ptr %14, align 4, !tbaa !36
  %70 = xor i32 %69, 1
  store i32 %70, ptr %14, align 4, !tbaa !36
  br label %71

71:                                               ; preds = %58
  %72 = load i32, ptr %11, align 4, !tbaa !36
  %73 = add nsw i32 %72, 1
  store i32 %73, ptr %11, align 4, !tbaa !36
  br label %26, !llvm.loop !76

74:                                               ; preds = %26
  %75 = getelementptr inbounds [18 x i32], ptr %10, i64 0, i64 1
  store i32 0, ptr %75, align 4, !tbaa !36
  store i32 1, ptr %11, align 4, !tbaa !36
  br label %76

76:                                               ; preds = %94, %74
  %77 = load i32, ptr %11, align 4, !tbaa !36
  %78 = icmp sle i32 %77, 16
  br i1 %78, label %79, label %97

79:                                               ; preds = %76
  %80 = load i32, ptr %11, align 4, !tbaa !36
  %81 = sext i32 %80 to i64
  %82 = getelementptr inbounds [18 x i32], ptr %10, i64 0, i64 %81
  %83 = load i32, ptr %82, align 4, !tbaa !36
  %84 = load i32, ptr %11, align 4, !tbaa !36
  %85 = sext i32 %84 to i64
  %86 = getelementptr inbounds [17 x i32], ptr %9, i64 0, i64 %85
  %87 = load i32, ptr %86, align 4, !tbaa !36
  %88 = add nsw i32 %83, %87
  %89 = shl i32 %88, 1
  %90 = load i32, ptr %11, align 4, !tbaa !36
  %91 = add nsw i32 %90, 1
  %92 = sext i32 %91 to i64
  %93 = getelementptr inbounds [18 x i32], ptr %10, i64 0, i64 %92
  store i32 %89, ptr %93, align 4, !tbaa !36
  br label %94

94:                                               ; preds = %79
  %95 = load i32, ptr %11, align 4, !tbaa !36
  %96 = add nsw i32 %95, 1
  store i32 %96, ptr %11, align 4, !tbaa !36
  br label %76, !llvm.loop !77

97:                                               ; preds = %76
  store i32 0, ptr %11, align 4, !tbaa !36
  br label %98

98:                                               ; preds = %115, %97
  %99 = load i32, ptr %11, align 4, !tbaa !36
  %100 = load i32, ptr %6, align 4, !tbaa !36
  %101 = icmp slt i32 %99, %100
  br i1 %101, label %102, label %118

102:                                              ; preds = %98
  %103 = load i32, ptr %11, align 4, !tbaa !36
  %104 = sext i32 %103 to i64
  %105 = getelementptr inbounds [644 x i8], ptr %7, i64 0, i64 %104
  %106 = load i8, ptr %105, align 1, !tbaa !33
  %107 = zext i8 %106 to i64
  %108 = getelementptr inbounds nuw [18 x i32], ptr %10, i64 0, i64 %107
  %109 = load i32, ptr %108, align 4, !tbaa !36
  %110 = add nsw i32 %109, 1
  store i32 %110, ptr %108, align 4, !tbaa !36
  %111 = trunc i32 %109 to i16
  %112 = load i32, ptr %11, align 4, !tbaa !36
  %113 = sext i32 %112 to i64
  %114 = getelementptr inbounds [644 x i16], ptr %8, i64 0, i64 %113
  store i16 %111, ptr %114, align 2, !tbaa !71
  br label %115

115:                                              ; preds = %102
  %116 = load i32, ptr %11, align 4, !tbaa !36
  %117 = add nsw i32 %116, 1
  store i32 %117, ptr %11, align 4, !tbaa !36
  br label %98, !llvm.loop !78

118:                                              ; preds = %98
  %119 = load ptr, ptr %4, align 8, !tbaa !73
  %120 = load i32, ptr %13, align 4, !tbaa !36
  %121 = icmp sgt i32 %120, 9
  br i1 %121, label %122, label %123

122:                                              ; preds = %118
  br label %125

123:                                              ; preds = %118
  %124 = load i32, ptr %13, align 4, !tbaa !36
  br label %125

125:                                              ; preds = %123, %122
  %126 = phi i32 [ 9, %122 ], [ %124, %123 ]
  %127 = load i32, ptr %6, align 4, !tbaa !36
  %128 = getelementptr inbounds [644 x i8], ptr %7, i64 0, i64 0
  %129 = getelementptr inbounds [644 x i16], ptr %8, i64 0, i64 0
  %130 = call i32 @ff_vlc_init_sparse(ptr noundef %119, i32 noundef %126, i32 noundef %127, ptr noundef %128, i32 noundef 1, i32 noundef 1, ptr noundef %129, i32 noundef 2, i32 noundef 2, ptr noundef null, i32 noundef 0, i32 noundef 0, i32 noundef 0)
  call void @llvm.lifetime.end.p0(i64 4, ptr %14) #10
  call void @llvm.lifetime.end.p0(i64 4, ptr %13) #10
  call void @llvm.lifetime.end.p0(i64 4, ptr %12) #10
  call void @llvm.lifetime.end.p0(i64 4, ptr %11) #10
  call void @llvm.lifetime.end.p0(i64 72, ptr %10) #10
  call void @llvm.lifetime.end.p0(i64 68, ptr %9) #10
  call void @llvm.lifetime.end.p0(i64 1288, ptr %8) #10
  call void @llvm.lifetime.end.p0(i64 644, ptr %7) #10
  ret i32 %130
}