; Function Attrs: cold nounwind optsize uwtable
define internal fastcc i32 @init_ralf_vlc(ptr noundef %0, ptr noundef readonly captures(none) %1, i32 noundef range(i32 43, 644) %2) unnamed_addr #0 {
.preheader36.preheader:
  %3 = alloca [644 x i8], align 16
  %4 = alloca [644 x i16], align 16
  %5 = alloca [17 x i32], align 16
  %6 = alloca [18 x i32], align 16
  call void @llvm.lifetime.start.p0(i64 644, ptr nonnull %3) #10
  call void @llvm.lifetime.start.p0(i64 1288, ptr nonnull %4) #10
  call void @llvm.lifetime.start.p0(i64 68, ptr nonnull %5) #10
  call void @llvm.lifetime.start.p0(i64 72, ptr nonnull %6) #10
  call void @llvm.memset.p0.i64(ptr noundef nonnull align 16 dereferenceable(68) %5, i8 0, i64 68, i1 false), !tbaa !45
  %wide.trip.count = zext nneg i32 %2 to i64
  br label %.preheader36

.preheader36:                                     ; preds = %.preheader36.preheader, %.preheader36
  %indvars.iv = phi i64 [ 0, %.preheader36.preheader ], [ %indvars.iv.next, %.preheader36 ]
  %.041 = phi i32 [ 0, %.preheader36.preheader ], [ %19, %.preheader36 ]
  %.03240 = phi i32 [ 0, %.preheader36.preheader ], [ %15, %.preheader36 ]
  %.03339 = phi ptr [ %1, %.preheader36.preheader ], [ %18, %.preheader36 ]
  %.not = icmp eq i32 %.041, 0
  %7 = load i8, ptr %.03339, align 1, !tbaa !29
  %8 = and i8 %7, 15
  %9 = lshr i8 %7, 4
  %.in = select i1 %.not, i8 %9, i8 %8
  %narrow = add nuw nsw i8 %.in, 1
  %10 = zext nneg i8 %narrow to i32
  %11 = zext nneg i8 %narrow to i64
  %12 = getelementptr inbounds nuw [17 x i32], ptr %5, i64 0, i64 %11
  %13 = load i32, ptr %12, align 4, !tbaa !45
  %14 = add nsw i32 %13, 1
  store i32 %14, ptr %12, align 4, !tbaa !45
  %15 = tail call i32 @llvm.umax.i32(i32 %.03240, i32 %10)
  %16 = getelementptr inbounds nuw [644 x i8], ptr %3, i64 0, i64 %indvars.iv
  store i8 %narrow, ptr %16, align 1, !tbaa !29
  %17 = zext nneg i32 %.041 to i64
  %18 = getelementptr inbounds nuw i8, ptr %.03339, i64 %17
  %19 = xor i32 %.041, 1
  %indvars.iv.next = add nuw nsw i64 %indvars.iv, 1
  %exitcond.not = icmp eq i64 %indvars.iv.next, %wide.trip.count
  br i1 %exitcond.not, label %20, label %.preheader36, !llvm.loop !93

20:                                               ; preds = %.preheader36
  %21 = getelementptr inbounds nuw i8, ptr %6, i64 4
  store i32 0, ptr %21, align 4, !tbaa !45
  br label %22

22:                                               ; preds = %20, %22
  %23 = phi i32 [ 0, %20 ], [ %27, %22 ]
  %indvars.iv46 = phi i64 [ 1, %20 ], [ %indvars.iv.next47, %22 ]
  %24 = getelementptr inbounds nuw [17 x i32], ptr %5, i64 0, i64 %indvars.iv46
  %25 = load i32, ptr %24, align 4, !tbaa !45
  %26 = add nsw i32 %25, %23
  %27 = shl i32 %26, 1
  %indvars.iv.next47 = add nuw nsw i64 %indvars.iv46, 1
  %28 = getelementptr inbounds nuw [18 x i32], ptr %6, i64 0, i64 %indvars.iv.next47
  store i32 %27, ptr %28, align 4, !tbaa !45
  %exitcond49.not = icmp eq i64 %indvars.iv.next47, 17
  br i1 %exitcond49.not, label %.preheader, label %22, !llvm.loop !94

.preheader:                                       ; preds = %22, %.preheader
  %indvars.iv50 = phi i64 [ %indvars.iv.next51, %.preheader ], [ 0, %22 ]
  %29 = getelementptr inbounds nuw [644 x i8], ptr %3, i64 0, i64 %indvars.iv50
  %30 = load i8, ptr %29, align 1, !tbaa !29
  %31 = zext i8 %30 to i64
  %32 = getelementptr inbounds nuw [18 x i32], ptr %6, i64 0, i64 %31
  %33 = load i32, ptr %32, align 4, !tbaa !45
  %34 = add nsw i32 %33, 1
  store i32 %34, ptr %32, align 4, !tbaa !45
  %35 = trunc i32 %33 to i16
  %36 = getelementptr inbounds nuw [644 x i16], ptr %4, i64 0, i64 %indvars.iv50
  store i16 %35, ptr %36, align 2, !tbaa !80
  %indvars.iv.next51 = add nuw nsw i64 %indvars.iv50, 1
  %exitcond54.not = icmp eq i64 %indvars.iv.next51, %wide.trip.count
  br i1 %exitcond54.not, label %37, label %.preheader, !llvm.loop !95

37:                                               ; preds = %.preheader
  %38 = tail call i32 @llvm.smin.i32(i32 %15, i32 9)
  %39 = call i32 @ff_vlc_init_sparse(ptr noundef %0, i32 noundef %38, i32 noundef %2, ptr noundef nonnull %3, i32 noundef 1, i32 noundef 1, ptr noundef nonnull %4, i32 noundef 2, i32 noundef 2, ptr noundef null, i32 noundef 0, i32 noundef 0, i32 noundef 0) #10
  call void @llvm.lifetime.end.p0(i64 72, ptr nonnull %6) #10
  call void @llvm.lifetime.end.p0(i64 68, ptr nonnull %5) #10
  call void @llvm.lifetime.end.p0(i64 1288, ptr nonnull %4) #10
  call void @llvm.lifetime.end.p0(i64 644, ptr nonnull %3) #10
  ret i32 %39
}